; Function Attrs: mustprogress nofree norecurse nounwind willreturn uwtable
define void @_ZNK19OpenColorIO_v2_5dev10ColorSpace12getTransformENS_19ColorSpaceDirectionE(ptr dead_on_unwind noalias writable writeonly sret(%"class.std::shared_ptr.11") align 8 captures(none) initializes((0, 16)) %0, ptr noundef nonnull readonly align 8 captures(none) dereferenceable(8) %1, i32 noundef %2) local_unnamed_addr #13 align 2 personality ptr @__gxx_personality_v0 {
  switch i32 %2, label %34 [
    i32 0, label %4
    i32 1, label %19
  ]

4:                                                ; preds = %3
  %5 = load ptr, ptr %1, align 8, !tbaa !52
  %6 = getelementptr inbounds nuw i8, ptr %5, i64 224
  %7 = load ptr, ptr %6, align 8, !tbaa !67
  store ptr %7, ptr %0, align 8, !tbaa !86
  %8 = getelementptr inbounds nuw i8, ptr %0, i64 8
  %9 = getelementptr inbounds nuw i8, ptr %5, i64 232
  %10 = load ptr, ptr %9, align 8, !tbaa !11
  store ptr %10, ptr %8, align 8, !tbaa !11
  %.not.i.i.i = icmp eq ptr %10, null
  br i1 %.not.i.i.i, label %_ZNSt10shared_ptrIKN19OpenColorIO_v2_5dev9TransformEEC2IS1_vEERKS_IT_E.exit, label %11

11:                                               ; preds = %4
  %12 = getelementptr inbounds nuw i8, ptr %10, i64 8
  %13 = load i8, ptr @__libc_single_threaded, align 1, !tbaa !22
  %.not.i.i.i.i = icmp eq i8 %13, 0
  br i1 %.not.i.i.i.i, label %17, label %14

14:                                               ; preds = %11
  %15 = load i32, ptr %12, align 4, !tbaa !23
  %16 = add nsw i32 %15, 1
  store i32 %16, ptr %12, align 4, !tbaa !23
  br label %_ZNSt10shared_ptrIKN19OpenColorIO_v2_5dev9TransformEEC2IS1_vEERKS_IT_E.exit

17:                                               ; preds = %11
  %18 = atomicrmw volatile add ptr %12, i32 1 acq_rel, align 4
  br label %_ZNSt10shared_ptrIKN19OpenColorIO_v2_5dev9TransformEEC2IS1_vEERKS_IT_E.exit

19:                                               ; preds = %3
  %20 = load ptr, ptr %1, align 8, !tbaa !52
  %21 = getelementptr inbounds nuw i8, ptr %20, i64 240
  %22 = load ptr, ptr %21, align 8, !tbaa !67
  store ptr %22, ptr %0, align 8, !tbaa !86
  %23 = getelementptr inbounds nuw i8, ptr %0, i64 8
  %24 = getelementptr inbounds nuw i8, ptr %20, i64 248
  %25 = load ptr, ptr %24, align 8, !tbaa !11
  store ptr %25, ptr %23, align 8, !tbaa !11
  %.not.i.i.i1 = icmp eq ptr %25, null
  br i1 %.not.i.i.i1, label %_ZNSt10shared_ptrIKN19OpenColorIO_v2_5dev9TransformEEC2IS1_vEERKS_IT_E.exit, label %26

26:                                               ; preds = %19
  %27 = getelementptr inbounds nuw i8, ptr %25, i64 8
  %28 = load i8, ptr @__libc_single_threaded, align 1, !tbaa !22
  %.not.i.i.i.i2 = icmp eq i8 %28, 0
  br i1 %.not.i.i.i.i2, label %32, label %29

29:                                               ; preds = %26
  %30 = load i32, ptr %27, align 4, !tbaa !23
  %31 = add nsw i32 %30, 1
  store i32 %31, ptr %27, align 4, !tbaa !23
  br label %_ZNSt10shared_ptrIKN19OpenColorIO_v2_5dev9TransformEEC2IS1_vEERKS_IT_E.exit

32:                                               ; preds = %26
  %33 = atomicrmw volatile add ptr %27, i32 1 acq_rel, align 4
  br label %_ZNSt10shared_ptrIKN19OpenColorIO_v2_5dev9TransformEEC2IS1_vEERKS_IT_E.exit

34:                                               ; preds = %3
  tail call void @llvm.memset.p0.i64(ptr noundef nonnull align 8 dereferenceable(16) %0, i8 0, i64 16, i1 false)
  br label %_ZNSt10shared_ptrIKN19OpenColorIO_v2_5dev9TransformEEC2IS1_vEERKS_IT_E.exit

_ZNSt10shared_ptrIKN19OpenColorIO_v2_5dev9TransformEEC2IS1_vEERKS_IT_E.exit: ; preds = %32, %29, %19, %17, %14, %4, %34
  ret void
}